target datalayout = "e-m:e-p270:32:32-p271:32:32-p272:64:64-i64:64-i128:128-f80:128-n8:16:32:64-S128"
target triple = "x86_64-pc-linux-gnu"

%struct._lv_indev_t = type { i32, ptr, i32, i32, i32, i8, i32, i32, ptr, ptr, ptr, ptr, i8, i8, i8, i8, i16, i16, i32, %struct.anon, %struct.anon.0, ptr, ptr, ptr, %struct.lv_event_list_t, ptr, i32, ptr }
%struct.anon = type { %struct.lv_point_t, %struct.lv_point_t, %struct.lv_point_t, %struct.lv_point_t, %struct.lv_point_t, %struct.lv_point_t, %struct.lv_point_t, ptr, ptr, ptr, ptr, ptr, %struct.lv_area_t, %struct.lv_point_t, i32, i8, %struct.lv_point_t, i32, i16 }
%struct.lv_area_t = type { i32, i32, i32, i32 }
%struct.lv_point_t = type { i32, i32 }
%struct.anon.0 = type { i32, i32 }
%struct.lv_event_list_t = type { %struct._lv_array_t, i8 }
%struct._lv_array_t = type { ptr, i32, i32, i32, i8 }

; Function Attrs: nounwind uwtable
define void @lv_indev_set_mode(ptr noundef %0, i32 noundef %1) #0 {
  %3 = alloca ptr, align 8
  %4 = alloca i32, align 4
  store ptr %0, ptr %3, align 8, !tbaa !8
  store i32 %1, ptr %4, align 4, !tbaa !41
  %5 = load ptr, ptr %3, align 8, !tbaa !8
  %6 = icmp eq ptr %5, null
  br i1 %6, label %13, label %7

7:                                                ; preds = %2
  %8 = load ptr, ptr %3, align 8, !tbaa !8
  %9 = getelementptr inbounds nuw %struct._lv_indev_t, ptr %8, i32 0, i32 4
  %10 = load i32, ptr %9, align 8, !tbaa !27
  %11 = load i32, ptr %4, align 4, !tbaa !41
  %12 = icmp eq i32 %10, %11
  br i1 %12, label %13, label %14

13:                                               ; preds = %7, %2
  br label %41

14:                                               ; preds = %7
  %15 = load i32, ptr %4, align 4, !tbaa !41
  %16 = load ptr, ptr %3, align 8, !tbaa !8
  %17 = getelementptr inbounds nuw %struct._lv_indev_t, ptr %16, i32 0, i32 4
  store i32 %15, ptr %17, align 8, !tbaa !27
  %18 = load ptr, ptr %3, align 8, !tbaa !8
  %19 = getelementptr inbounds nuw %struct._lv_indev_t, ptr %18, i32 0, i32 11
  %20 = load ptr, ptr %19, align 8, !tbaa !10
  %21 = icmp ne ptr %20, null
  br i1 %21, label %22, label %41

22:                                               ; preds = %14
  %23 = load i32, ptr %4, align 4, !tbaa !41
  %24 = icmp eq i32 %23, 2
  br i1 %24, label %25, label %29

25:                                               ; preds = %22
  %26 = load ptr, ptr %3, align 8, !tbaa !8
  %27 = getelementptr inbounds nuw %struct._lv_indev_t, ptr %26, i32 0, i32 11
  %28 = load ptr, ptr %27, align 8, !tbaa !10
  call void @lv_timer_pause(ptr noundef %28)
  br label %40

29:                                               ; preds = %22
  %30 = load i32, ptr %4, align 4, !tbaa !41
  %31 = icmp eq i32 %30, 1
  br i1 %31, label %32, label %39

32:                                               ; preds = %29
  %33 = load ptr, ptr %3, align 8, !tbaa !8
  %34 = getelementptr inbounds nuw %struct._lv_indev_t, ptr %33, i32 0, i32 11
  %35 = load ptr, ptr %34, align 8, !tbaa !10
  call void @lv_timer_set_cb(ptr noundef %35, ptr noundef @lv_indev_read_timer_cb)
  %36 = load ptr, ptr %3, align 8, !tbaa !8
  %37 = getelementptr inbounds nuw %struct._lv_indev_t, ptr %36, i32 0, i32 11
  %38 = load ptr, ptr %37, align 8, !tbaa !10
  call void @lv_timer_resume(ptr noundef %38)
  br label %39

39:                                               ; preds = %32, %29
  br label %40

40:                                               ; preds = %39, %25
  br label %41

41:                                               ; preds = %13, %40, %14
  ret void
}