; Function Attrs: nounwind uwtable
define void @lv_indev_set_mode(ptr noundef captures(address_is_null) %0, i32 noundef %1) local_unnamed_addr #0 {
  %3 = icmp eq ptr %0, null
  br i1 %3, label %15, label %4

4:                                                ; preds = %2
  %5 = getelementptr inbounds nuw i8, ptr %0, i64 24
  %6 = load i32, ptr %5, align 8, !tbaa !24
  %7 = icmp eq i32 %6, %1
  br i1 %7, label %15, label %8

8:                                                ; preds = %4
  store i32 %1, ptr %5, align 8, !tbaa !24
  %9 = getelementptr inbounds nuw i8, ptr %0, i64 64
  %10 = load ptr, ptr %9, align 8, !tbaa !3
  %.not = icmp eq ptr %10, null
  br i1 %.not, label %15, label %11

11:                                               ; preds = %8
  switch i32 %1, label %15 [
    i32 2, label %12
    i32 1, label %13
  ]

12:                                               ; preds = %11
  tail call void @lv_timer_pause(ptr noundef nonnull %10) #11
  br label %15

13:                                               ; preds = %11
  tail call void @lv_timer_set_cb(ptr noundef nonnull %10, ptr noundef nonnull @lv_indev_read_timer_cb) #11
  %14 = load ptr, ptr %9, align 8, !tbaa !3
  tail call void @lv_timer_resume(ptr noundef %14) #11
  br label %15

15:                                               ; preds = %11, %12, %13, %2, %4, %8
  ret void
}